target datalayout = "e-m:e-p270:32:32-p271:32:32-p272:64:64-i64:64-i128:128-f80:128-n8:16:32:64-S128"
target triple = "x86_64-pc-linux-gnu"

%struct.test_fixture = type { ptr, ptr, ptr, i32, i32, ptr }

@server_key = internal global ptr null, align 8
@client_key = internal global ptr null, align 8
@.str.14 = private unnamed_addr constant [34 x i8] c"../openssl/test/cmp_client_test.c\00", align 1
@__func__.test_exec_KUR_ses = private unnamed_addr constant [18 x i8] c"test_exec_KUR_ses\00", align 1

; Function Attrs: inlinehint nounwind uwtable
define internal ptr @ossl_check_X509_sk_type(ptr noundef %0) #3 {
  %2 = alloca ptr, align 8
  store ptr %0, ptr %2, align 8, !tbaa !32
  %3 = load ptr, ptr %2, align 8, !tbaa !32
  ret ptr %3
}

; Function Attrs: nounwind uwtable
define internal void @tear_down(ptr noundef %0) #0 {
  %2 = alloca ptr, align 8
  store ptr %0, ptr %2, align 8, !tbaa !17
  %3 = load ptr, ptr %2, align 8, !tbaa !17
  %4 = getelementptr inbounds nuw %struct.test_fixture, ptr %3, i32 0, i32 1
  %5 = load ptr, ptr %4, align 8, !tbaa !29
  call void @OSSL_CMP_CTX_free(ptr noundef %5)
  %6 = load ptr, ptr %2, align 8, !tbaa !17
  %7 = getelementptr inbounds nuw %struct.test_fixture, ptr %6, i32 0, i32 2
  %8 = load ptr, ptr %7, align 8, !tbaa !21
  call void @ossl_cmp_mock_srv_free(ptr noundef %8)
  %9 = load ptr, ptr %2, align 8, !tbaa !17
  %10 = getelementptr inbounds nuw %struct.test_fixture, ptr %9, i32 0, i32 5
  %11 = load ptr, ptr %10, align 8, !tbaa !28
  %12 = call ptr @ossl_check_X509_sk_type(ptr noundef %11)
  call void @OPENSSL_sk_free(ptr noundef %12)
  %13 = load ptr, ptr %2, align 8, !tbaa !17
  call void @CRYPTO_free(ptr noundef %13, ptr noundef @.str.14, i32 noundef 51)
  ret void
}

; Function Attrs: nounwind uwtable
define internal i32 @test_exec_KUR_ses(i32 noundef %0, i32 noundef %1, i32 noundef %2) #0 {
  %4 = alloca i32, align 4
  %5 = alloca i32, align 4
  %6 = alloca i32, align 4
  %7 = alloca i32, align 4
  %8 = alloca ptr, align 8
  %9 = alloca i32, align 4
  %10 = alloca i32, align 4
  %11 = alloca ptr, align 8
  store i32 %0, ptr %5, align 4, !tbaa !19
  store i32 %1, ptr %6, align 4, !tbaa !19
  store i32 %2, ptr %7, align 4, !tbaa !19
  call void @llvm.lifetime.start.p0(i64 8, ptr %8) #4
  %12 = call ptr @set_up(ptr noundef @__func__.test_exec_KUR_ses)
  store ptr %12, ptr %8, align 8, !tbaa !17
  call void @llvm.lifetime.start.p0(i64 4, ptr %9) #4
  store i32 0, ptr %9, align 4, !tbaa !19
  %13 = load ptr, ptr %8, align 8, !tbaa !17
  %14 = icmp eq ptr %13, null
  br i1 %14, label %15, label %16

15:                                               ; preds = %3
  store i32 0, ptr %4, align 4
  store i32 1, ptr %10, align 4
  br label %80

16:                                               ; preds = %3
  %17 = load ptr, ptr %8, align 8, !tbaa !17
  %18 = getelementptr inbounds nuw %struct.test_fixture, ptr %17, i32 0, i32 3
  store i32 7, ptr %18, align 8, !tbaa !27
  %19 = load i32, ptr %5, align 4, !tbaa !19
  %20 = icmp ne i32 %19, 0
  br i1 %20, label %21, label %26

21:                                               ; preds = %16
  %22 = load ptr, ptr %8, align 8, !tbaa !17
  %23 = getelementptr inbounds nuw %struct.test_fixture, ptr %22, i32 0, i32 1
  %24 = load ptr, ptr %23, align 8, !tbaa !29
  %25 = call i32 @OSSL_CMP_CTX_set_transfer_cb_arg(ptr noundef %24, ptr noundef null)
  br label %26

26:                                               ; preds = %21, %16
  %27 = load i32, ptr %6, align 4, !tbaa !19
  %28 = icmp ne i32 %27, 0
  br i1 %28, label %29, label %49

29:                                               ; preds = %26
  call void @llvm.lifetime.start.p0(i64 8, ptr %11) #4
  %30 = load i32, ptr %7, align 4, !tbaa !19
  %31 = icmp ne i32 %30, 0
  br i1 %31, label %32, label %34

32:                                               ; preds = %29
  %33 = load ptr, ptr @server_key, align 8, !tbaa !9
  br label %36

34:                                               ; preds = %29
  %35 = load ptr, ptr @client_key, align 8, !tbaa !9
  br label %36

36:                                               ; preds = %34, %32
  %37 = phi ptr [ %33, %32 ], [ %35, %34 ]
  store ptr %37, ptr %11, align 8, !tbaa !9
  %38 = load ptr, ptr %11, align 8, !tbaa !9
  %39 = call i32 @EVP_PKEY_up_ref(ptr noundef %38)
  %40 = load ptr, ptr %8, align 8, !tbaa !17
  %41 = getelementptr inbounds nuw %struct.test_fixture, ptr %40, i32 0, i32 1
  %42 = load ptr, ptr %41, align 8, !tbaa !29
  %43 = load ptr, ptr %11, align 8, !tbaa !9
  %44 = call i32 @OSSL_CMP_CTX_set0_newPkey(ptr noundef %42, i32 noundef 0, ptr noundef %43)
  %45 = load ptr, ptr %8, align 8, !tbaa !17
  %46 = getelementptr inbounds nuw %struct.test_fixture, ptr %45, i32 0, i32 2
  %47 = load ptr, ptr %46, align 8, !tbaa !21
  %48 = call i32 @OSSL_CMP_SRV_CTX_set_accept_raverified(ptr noundef %47, i32 noundef 1)
  call void @llvm.lifetime.end.p0(i64 8, ptr %11) #4
  br label %49

49:                                               ; preds = %36, %26
  %50 = load i32, ptr %6, align 4, !tbaa !19
  %51 = icmp ne i32 %50, 0
  br i1 %51, label %55, label %52

52:                                               ; preds = %49
  %53 = load i32, ptr %7, align 4, !tbaa !19
  %54 = icmp ne i32 %53, 0
  br i1 %54, label %55, label %60

55:                                               ; preds = %52, %49
  %56 = load ptr, ptr %8, align 8, !tbaa !17
  %57 = getelementptr inbounds nuw %struct.test_fixture, ptr %56, i32 0, i32 1
  %58 = load ptr, ptr %57, align 8, !tbaa !29
  %59 = call i32 @OSSL_CMP_CTX_set_option(ptr noundef %58, i32 noundef 24, i32 noundef 0)
  br label %60

60:                                               ; preds = %55, %52
  %61 = load i32, ptr %5, align 4, !tbaa !19
  %62 = icmp ne i32 %61, 0
  br i1 %62, label %63, label %64

63:                                               ; preds = %60
  br label %68

64:                                               ; preds = %60
  %65 = load i32, ptr %7, align 4, !tbaa !19
  %66 = icmp ne i32 %65, 0
  %67 = select i1 %66, i32 2, i32 0
  br label %68

68:                                               ; preds = %64, %63
  %69 = phi i32 [ -2, %63 ], [ %67, %64 ]
  %70 = load ptr, ptr %8, align 8, !tbaa !17
  %71 = getelementptr inbounds nuw %struct.test_fixture, ptr %70, i32 0, i32 4
  store i32 %69, ptr %71, align 4, !tbaa !26
  %72 = load ptr, ptr %8, align 8, !tbaa !17
  %73 = icmp ne ptr %72, null
  br i1 %73, label %74, label %78

74:                                               ; preds = %68
  %75 = load ptr, ptr %8, align 8, !tbaa !17
  %76 = call i32 @execute_exec_certrequest_ses_test(ptr noundef %75)
  store i32 %76, ptr %9, align 4, !tbaa !19
  %77 = load ptr, ptr %8, align 8, !tbaa !17
  call void @tear_down(ptr noundef %77)
  br label %78

78:                                               ; preds = %74, %68
  %79 = load i32, ptr %9, align 4, !tbaa !19
  store i32 %79, ptr %4, align 4
  store i32 1, ptr %10, align 4
  br label %80

80:                                               ; preds = %78, %15
  call void @llvm.lifetime.end.p0(i64 4, ptr %9) #4
  call void @llvm.lifetime.end.p0(i64 8, ptr %8) #4
  %81 = load i32, ptr %4, align 4
  ret i32 %81
}