; Function Attrs: nounwind uwtable
define internal fastcc i32 @test_exec_KUR_ses(i32 noundef range(i32 0, 2) %0, i32 noundef range(i32 0, 2) %1, i32 noundef range(i32 0, 2) %2) unnamed_addr #0 {
  %4 = tail call fastcc ptr @set_up(ptr noundef nonnull @__func__.test_exec_KUR_ses)
  %5 = icmp eq ptr %4, null
  br i1 %5, label %41, label %6

6:                                                ; preds = %3
  %7 = getelementptr inbounds nuw i8, ptr %4, i64 24
  store i32 7, ptr %7, align 8, !tbaa !26
  %.not = icmp eq i32 %0, 0
  br i1 %.not, label %12, label %8

8:                                                ; preds = %6
  %9 = getelementptr inbounds nuw i8, ptr %4, i64 8
  %10 = load ptr, ptr %9, align 8, !tbaa !23
  %11 = tail call i32 @OSSL_CMP_CTX_set_transfer_cb_arg(ptr noundef %10, ptr noundef null) #4
  br label %12

12:                                               ; preds = %8, %6
  %.not24 = icmp eq i32 %1, 0
  br i1 %.not24, label %24, label %13

13:                                               ; preds = %12
  %.not23 = icmp eq i32 %2, 0
  %14 = load ptr, ptr @server_key, align 8
  %15 = load ptr, ptr @client_key, align 8
  %16 = select i1 %.not23, ptr %15, ptr %14
  %17 = tail call i32 @EVP_PKEY_up_ref(ptr noundef %16) #4
  %18 = getelementptr inbounds nuw i8, ptr %4, i64 8
  %19 = load ptr, ptr %18, align 8, !tbaa !23
  %20 = tail call i32 @OSSL_CMP_CTX_set0_newPkey(ptr noundef %19, i32 noundef 0, ptr noundef %16) #4
  %21 = getelementptr inbounds nuw i8, ptr %4, i64 16
  %22 = load ptr, ptr %21, align 8, !tbaa !24
  %23 = tail call i32 @OSSL_CMP_SRV_CTX_set_accept_raverified(ptr noundef %22, i32 noundef 1) #4
  br label %24

24:                                               ; preds = %13, %12
  %.not25 = icmp eq i32 %2, 0
  %25 = or i32 %2, %1
  %or.cond.not = icmp eq i32 %25, 0
  br i1 %or.cond.not, label %30, label %26

26:                                               ; preds = %24
  %27 = getelementptr inbounds nuw i8, ptr %4, i64 8
  %28 = load ptr, ptr %27, align 8, !tbaa !23
  %29 = tail call i32 @OSSL_CMP_CTX_set_option(ptr noundef %28, i32 noundef 24, i32 noundef 0) #4
  br label %30

30:                                               ; preds = %24, %26
  %31 = select i1 %.not25, i32 0, i32 2
  %32 = select i1 %.not, i32 %31, i32 -2
  %33 = getelementptr inbounds nuw i8, ptr %4, i64 28
  store i32 %32, ptr %33, align 4, !tbaa !17
  %34 = tail call fastcc i32 @execute_exec_certrequest_ses_test(ptr noundef %4)
  %35 = getelementptr inbounds nuw i8, ptr %4, i64 8
  %36 = load ptr, ptr %35, align 8, !tbaa !23
  tail call void @OSSL_CMP_CTX_free(ptr noundef %36) #4
  %37 = getelementptr inbounds nuw i8, ptr %4, i64 16
  %38 = load ptr, ptr %37, align 8, !tbaa !24
  tail call void @ossl_cmp_mock_srv_free(ptr noundef %38) #4
  %39 = getelementptr inbounds nuw i8, ptr %4, i64 32
  %40 = load ptr, ptr %39, align 8, !tbaa !25
  tail call void @OPENSSL_sk_free(ptr noundef %40) #4
  tail call void @CRYPTO_free(ptr noundef nonnull %4, ptr noundef nonnull @.str.14, i32 noundef 51) #4
  br label %41

41:                                               ; preds = %3, %30
  %.0 = phi i32 [ %34, %30 ], [ 0, %3 ]
  ret i32 %.0
}